target datalayout = "e-m:e-p270:32:32-p271:32:32-p272:64:64-i64:64-i128:128-f80:128-n8:16:32:64-S128"
target triple = "x86_64-pc-linux-gnu"

%struct.H5F_t = type { ptr, ptr, ptr, ptr, i32, ptr, i8, i8, ptr, i32 }
%struct.H5F_shared_t = type { ptr, ptr, ptr, i8, i32, i32, %struct.H5F_mtab_t, ptr, i8, i8, i64, i32, i32, i64, i64, ptr, ptr, %struct.H5AC_cache_config_t, %struct.H5AC_cache_image_config_t, i8, i8, ptr, i64, i32, i8, i64, i64, double, i64, i64, i64, i32, i32, i32, i8, i32, ptr, ptr, ptr, ptr, i8, i8, i8, i64, i64, ptr, ptr, i32, i64, i8, i32, i8, i64, i8, [13 x i32], [13 x i64], [13 x ptr], i8, i64, i64, [7 x i32], [7 x i32], %struct.H5F_blk_aggr_t, %struct.H5F_blk_aggr_t, i64, i64, %struct.H5F_meta_accum_t, i32, i32, [30 x ptr], %struct.H5F_object_flush_t, i8, ptr }
%struct.H5F_mtab_t = type { i32, i32, ptr }
%struct.H5AC_cache_config_t = type { i32, i8, i8, i8, [1025 x i8], i8, i8, i64, double, i64, i64, i64, i32, double, double, i8, i64, i32, double, double, i32, double, double, i8, i64, i32, i8, double, i64, i32 }
%struct.H5AC_cache_image_config_t = type { i32, i8, i8, i32 }
%struct.H5F_blk_aggr_t = type { i64, i64, i64, i64, i64 }
%struct.H5F_meta_accum_t = type { ptr, i64, i64, i64, i64, i64, i8 }
%struct.H5F_object_flush_t = type { ptr, ptr }
%struct.H5FD_t = type { i64, ptr, i64, i32, i64, i64, i64, i64, i64, i8 }
%struct.H5FD_class_t = type { i32, i32, ptr, i64, i32, ptr, ptr, ptr, ptr, i64, ptr, ptr, ptr, i64, ptr, ptr, ptr, ptr, ptr, ptr, ptr, ptr, ptr, ptr, ptr, ptr, ptr, ptr, ptr, ptr, ptr, ptr, ptr, ptr, ptr, ptr, ptr, ptr, ptr, [7 x i32] }
%struct.H5F_super_t = type { %struct.H5C_cache_entry_t, i32, i8, i8, i8, i32, [2 x i32], i64, i64, i64, i64, ptr }
%struct.H5C_cache_entry_t = type { ptr, i64, i64, ptr, i8, ptr, i8, i8, i8, i8, i32, i8, i8, i8, i8, i8, i32, ptr, i32, i32, i32, i32, i32, i8, i8, ptr, ptr, ptr, ptr, ptr, ptr, i8, i32, i8, i64, ptr, i64, i64, i32, i8, i32, i32, i8, ptr, ptr, ptr }

@.str.2 = private unnamed_addr constant [100 x i8] c"generated/home/dtcxzyw/WorkSpace/Projects/compilers/llvm-opt-benchmark/bench/hdf5/hdf5/src/H5Fint.c\00", align 1
@H5E_FILE_g = external global i64, align 8
@H5E_CANTGET_g = external global i64, align 8
@H5E_ARGS_g = external global i64, align 8
@H5E_READERROR_g = external global i64, align 8
@H5E_BADVALUE_g = external global i64, align 8
@__func__.H5F__get_file_image = private unnamed_addr constant [20 x i8] c"H5F__get_file_image\00", align 1
@.str.134 = private unnamed_addr constant [36 x i8] c"file_id yields invalid file pointer\00", align 1
@.str.135 = private unnamed_addr constant [36 x i8] c"fd_ptr yields invalid class pointer\00", align 1
@.str.136 = private unnamed_addr constant [6 x i8] c"multi\00", align 1
@.str.137 = private unnamed_addr constant [37 x i8] c"Not supported for multi file driver.\00", align 1
@.str.138 = private unnamed_addr constant [7 x i8] c"family\00", align 1
@.str.139 = private unnamed_addr constant [38 x i8] c"Not supported for family file driver.\00", align 1
@.str.140 = private unnamed_addr constant [24 x i8] c"unable to get file size\00", align 1
@.str.141 = private unnamed_addr constant [26 x i8] c"supplied buffer too small\00", align 1
@.str.142 = private unnamed_addr constant [31 x i8] c"file image read request failed\00", align 1

; Function Attrs: nounwind uwtable
define i32 @H5F__get_file_image(ptr noundef %0, ptr noundef %1, i64 noundef %2, ptr noundef %3) #0 {
  %5 = alloca ptr, align 8
  %6 = alloca ptr, align 8
  %7 = alloca i64, align 8
  %8 = alloca ptr, align 8
  %9 = alloca ptr, align 8
  %10 = alloca i64, align 8
  %11 = alloca i32, align 4
  %12 = alloca i8, align 1
  %13 = alloca i32, align 4
  %14 = alloca i32, align 4
  store ptr %0, ptr %5, align 8
  store ptr %1, ptr %6, align 8
  store i64 %2, ptr %7, align 8
  store ptr %3, ptr %8, align 8
  store i32 0, ptr %11, align 4
  store i8 0, ptr %12, align 1
  %15 = load ptr, ptr %5, align 8
  %16 = icmp ne ptr %15, null
  br i1 %16, label %17, label %29

17:                                               ; preds = %4
  %18 = load ptr, ptr %5, align 8
  %19 = getelementptr inbounds %struct.H5F_t, ptr %18, i32 0, i32 2
  %20 = load ptr, ptr %19, align 8
  %21 = icmp ne ptr %20, null
  br i1 %21, label %22, label %29

22:                                               ; preds = %17
  %23 = load ptr, ptr %5, align 8
  %24 = getelementptr inbounds %struct.H5F_t, ptr %23, i32 0, i32 2
  %25 = load ptr, ptr %24, align 8
  %26 = getelementptr inbounds %struct.H5F_shared_t, ptr %25, i32 0, i32 0
  %27 = load ptr, ptr %26, align 8
  %28 = icmp ne ptr %27, null
  br i1 %28, label %44, label %29

29:                                               ; preds = %22, %17, %4
  br label %30

30:                                               ; preds = %29
  br label %31

31:                                               ; preds = %30
  br label %32

32:                                               ; preds = %31
  %33 = load i64, ptr @H5E_FILE_g, align 8
  %34 = load i64, ptr @H5E_BADVALUE_g, align 8
  %35 = call i32 (ptr, ptr, i32, i64, i64, ptr, ...) @H5E_printf_stack(ptr noundef @.str.2, ptr noundef @__func__.H5F__get_file_image, i32 noundef 3232, i64 noundef %33, i64 noundef %34, ptr noundef @.str.134)
  br label %36

36:                                               ; preds = %32
  store i8 1, ptr %12, align 1
  %37 = load i8, ptr %12, align 1
  %38 = trunc i8 %37 to i1
  %39 = zext i1 %38 to i8
  store i8 %39, ptr %12, align 1
  br label %40

40:                                               ; preds = %36
  br label %41

41:                                               ; preds = %40
  store i32 -1, ptr %11, align 4
  br label %210

42:                                               ; No predecessors!
  br label %43

43:                                               ; preds = %42
  br label %44

44:                                               ; preds = %43, %22
  %45 = load ptr, ptr %5, align 8
  %46 = getelementptr inbounds %struct.H5F_t, ptr %45, i32 0, i32 2
  %47 = load ptr, ptr %46, align 8
  %48 = getelementptr inbounds %struct.H5F_shared_t, ptr %47, i32 0, i32 0
  %49 = load ptr, ptr %48, align 8
  store ptr %49, ptr %9, align 8
  %50 = load ptr, ptr %9, align 8
  %51 = getelementptr inbounds %struct.H5FD_t, ptr %50, i32 0, i32 1
  %52 = load ptr, ptr %51, align 8
  %53 = icmp ne ptr %52, null
  br i1 %53, label %69, label %54

54:                                               ; preds = %44
  br label %55

55:                                               ; preds = %54
  br label %56

56:                                               ; preds = %55
  br label %57

57:                                               ; preds = %56
  %58 = load i64, ptr @H5E_FILE_g, align 8
  %59 = load i64, ptr @H5E_BADVALUE_g, align 8
  %60 = call i32 (ptr, ptr, i32, i64, i64, ptr, ...) @H5E_printf_stack(ptr noundef @.str.2, ptr noundef @__func__.H5F__get_file_image, i32 noundef 3235, i64 noundef %58, i64 noundef %59, ptr noundef @.str.135)
  br label %61

61:                                               ; preds = %57
  store i8 1, ptr %12, align 1
  %62 = load i8, ptr %12, align 1
  %63 = trunc i8 %62 to i1
  %64 = zext i1 %63 to i8
  store i8 %64, ptr %12, align 1
  br label %65

65:                                               ; preds = %61
  br label %66

66:                                               ; preds = %65
  store i32 -1, ptr %11, align 4
  br label %210

67:                                               ; No predecessors!
  br label %68

68:                                               ; preds = %67
  br label %69

69:                                               ; preds = %68, %44
  %70 = load ptr, ptr %9, align 8
  %71 = getelementptr inbounds %struct.H5FD_t, ptr %70, i32 0, i32 1
  %72 = load ptr, ptr %71, align 8
  %73 = getelementptr inbounds %struct.H5FD_class_t, ptr %72, i32 0, i32 2
  %74 = load ptr, ptr %73, align 8
  %75 = call i32 @strcmp(ptr noundef %74, ptr noundef @.str.136) #11
  %76 = icmp eq i32 %75, 0
  br i1 %76, label %77, label %92

77:                                               ; preds = %69
  br label %78

78:                                               ; preds = %77
  br label %79

79:                                               ; preds = %78
  br label %80

80:                                               ; preds = %79
  %81 = load i64, ptr @H5E_ARGS_g, align 8
  %82 = load i64, ptr @H5E_BADVALUE_g, align 8
  %83 = call i32 (ptr, ptr, i32, i64, i64, ptr, ...) @H5E_printf_stack(ptr noundef @.str.2, ptr noundef @__func__.H5F__get_file_image, i32 noundef 3256, i64 noundef %81, i64 noundef %82, ptr noundef @.str.137)
  br label %84

84:                                               ; preds = %80
  store i8 1, ptr %12, align 1
  %85 = load i8, ptr %12, align 1
  %86 = trunc i8 %85 to i1
  %87 = zext i1 %86 to i8
  store i8 %87, ptr %12, align 1
  br label %88

88:                                               ; preds = %84
  br label %89

89:                                               ; preds = %88
  store i32 -1, ptr %11, align 4
  br label %210

90:                                               ; No predecessors!
  br label %91

91:                                               ; preds = %90
  br label %92

92:                                               ; preds = %91, %69
  %93 = load ptr, ptr %9, align 8
  %94 = getelementptr inbounds %struct.H5FD_t, ptr %93, i32 0, i32 1
  %95 = load ptr, ptr %94, align 8
  %96 = getelementptr inbounds %struct.H5FD_class_t, ptr %95, i32 0, i32 2
  %97 = load ptr, ptr %96, align 8
  %98 = call i32 @strcmp(ptr noundef %97, ptr noundef @.str.138) #11
  %99 = icmp eq i32 %98, 0
  br i1 %99, label %100, label %115

100:                                              ; preds = %92
  br label %101

101:                                              ; preds = %100
  br label %102

102:                                              ; preds = %101
  br label %103

103:                                              ; preds = %102
  %104 = load i64, ptr @H5E_FILE_g, align 8
  %105 = load i64, ptr @H5E_BADVALUE_g, align 8
  %106 = call i32 (ptr, ptr, i32, i64, i64, ptr, ...) @H5E_printf_stack(ptr noundef @.str.2, ptr noundef @__func__.H5F__get_file_image, i32 noundef 3278, i64 noundef %104, i64 noundef %105, ptr noundef @.str.139)
  br label %107

107:                                              ; preds = %103
  store i8 1, ptr %12, align 1
  %108 = load i8, ptr %12, align 1
  %109 = trunc i8 %108 to i1
  %110 = zext i1 %109 to i8
  store i8 %110, ptr %12, align 1
  br label %111

111:                                              ; preds = %107
  br label %112

112:                                              ; preds = %111
  store i32 -1, ptr %11, align 4
  br label %210

113:                                              ; No predecessors!
  br label %114

114:                                              ; preds = %113
  br label %115

115:                                              ; preds = %114, %92
  %116 = load ptr, ptr %5, align 8
  %117 = getelementptr inbounds %struct.H5F_t, ptr %116, i32 0, i32 2
  %118 = load ptr, ptr %117, align 8
  %119 = getelementptr inbounds %struct.H5F_shared_t, ptr %118, i32 0, i32 0
  %120 = load ptr, ptr %119, align 8
  %121 = call i64 @H5FD_get_eoa(ptr noundef %120, i32 noundef 0)
  store i64 %121, ptr %10, align 8
  %122 = icmp eq i64 -1, %121
  br i1 %122, label %123, label %138

123:                                              ; preds = %115
  br label %124

124:                                              ; preds = %123
  br label %125

125:                                              ; preds = %124
  br label %126

126:                                              ; preds = %125
  %127 = load i64, ptr @H5E_FILE_g, align 8
  %128 = load i64, ptr @H5E_CANTGET_g, align 8
  %129 = call i32 (ptr, ptr, i32, i64, i64, ptr, ...) @H5E_printf_stack(ptr noundef @.str.2, ptr noundef @__func__.H5F__get_file_image, i32 noundef 3282, i64 noundef %127, i64 noundef %128, ptr noundef @.str.140)
  br label %130

130:                                              ; preds = %126
  store i8 1, ptr %12, align 1
  %131 = load i8, ptr %12, align 1
  %132 = trunc i8 %131 to i1
  %133 = zext i1 %132 to i8
  store i8 %133, ptr %12, align 1
  br label %134

134:                                              ; preds = %130
  br label %135

135:                                              ; preds = %134
  store i32 -1, ptr %11, align 4
  br label %210

136:                                              ; No predecessors!
  br label %137

137:                                              ; preds = %136
  br label %138

138:                                              ; preds = %137, %115
  %139 = load ptr, ptr %6, align 8
  %140 = icmp ne ptr %139, null
  br i1 %140, label %141, label %207

141:                                              ; preds = %138
  %142 = load i64, ptr %7, align 8
  %143 = load i64, ptr %10, align 8
  %144 = icmp ult i64 %142, %143
  br i1 %144, label %145, label %160

145:                                              ; preds = %141
  br label %146

146:                                              ; preds = %145
  br label %147

147:                                              ; preds = %146
  br label %148

148:                                              ; preds = %147
  %149 = load i64, ptr @H5E_FILE_g, align 8
  %150 = load i64, ptr @H5E_BADVALUE_g, align 8
  %151 = call i32 (ptr, ptr, i32, i64, i64, ptr, ...) @H5E_printf_stack(ptr noundef @.str.2, ptr noundef @__func__.H5F__get_file_image, i32 noundef 3290, i64 noundef %149, i64 noundef %150, ptr noundef @.str.141)
  br label %152

152:                                              ; preds = %148
  store i8 1, ptr %12, align 1
  %153 = load i8, ptr %12, align 1
  %154 = trunc i8 %153 to i1
  %155 = zext i1 %154 to i8
  store i8 %155, ptr %12, align 1
  br label %156

156:                                              ; preds = %152
  br label %157

157:                                              ; preds = %156
  store i32 -1, ptr %11, align 4
  br label %210

158:                                              ; No predecessors!
  br label %159

159:                                              ; preds = %158
  br label %160

160:                                              ; preds = %159, %141
  %161 = load ptr, ptr %9, align 8
  %162 = load i64, ptr %10, align 8
  %163 = load ptr, ptr %6, align 8
  %164 = call i32 @H5FD_read(ptr noundef %161, i32 noundef 0, i64 noundef 0, i64 noundef %162, ptr noundef %163)
  %165 = icmp slt i32 %164, 0
  br i1 %165, label %166, label %181

166:                                              ; preds = %160
  br label %167

167:                                              ; preds = %166
  br label %168

168:                                              ; preds = %167
  br label %169

169:                                              ; preds = %168
  %170 = load i64, ptr @H5E_FILE_g, align 8
  %171 = load i64, ptr @H5E_READERROR_g, align 8
  %172 = call i32 (ptr, ptr, i32, i64, i64, ptr, ...) @H5E_printf_stack(ptr noundef @.str.2, ptr noundef @__func__.H5F__get_file_image, i32 noundef 3295, i64 noundef %170, i64 noundef %171, ptr noundef @.str.142)
  br label %173

173:                                              ; preds = %169
  store i8 1, ptr %12, align 1
  %174 = load i8, ptr %12, align 1
  %175 = trunc i8 %174 to i1
  %176 = zext i1 %175 to i8
  store i8 %176, ptr %12, align 1
  br label %177

177:                                              ; preds = %173
  br label %178

178:                                              ; preds = %177
  store i32 -1, ptr %11, align 4
  br label %210

179:                                              ; No predecessors!
  br label %180

180:                                              ; preds = %179
  br label %181

181:                                              ; preds = %180, %160
  %182 = load ptr, ptr %5, align 8
  %183 = getelementptr inbounds %struct.H5F_t, ptr %182, i32 0, i32 2
  %184 = load ptr, ptr %183, align 8
  %185 = getelementptr inbounds %struct.H5F_shared_t, ptr %184, i32 0, i32 1
  %186 = load ptr, ptr %185, align 8
  %187 = getelementptr inbounds %struct.H5F_super_t, ptr %186, i32 0, i32 1
  %188 = load i32, ptr %187, align 8
  %189 = icmp uge i32 %188, 2
  %190 = select i1 %189, i32 2, i32 11
  %191 = add i32 9, %190
  store i32 %191, ptr %13, align 4
  %192 = load ptr, ptr %5, align 8
  %193 = getelementptr inbounds %struct.H5F_t, ptr %192, i32 0, i32 2
  %194 = load ptr, ptr %193, align 8
  %195 = getelementptr inbounds %struct.H5F_shared_t, ptr %194, i32 0, i32 1
  %196 = load ptr, ptr %195, align 8
  %197 = getelementptr inbounds %struct.H5F_super_t, ptr %196, i32 0, i32 1
  %198 = load i32, ptr %197, align 8
  %199 = icmp uge i32 %198, 2
  %200 = select i1 %199, i32 1, i32 4
  store i32 %200, ptr %14, align 4
  %201 = load ptr, ptr %6, align 8
  %202 = load i32, ptr %13, align 4
  %203 = zext i32 %202 to i64
  %204 = getelementptr inbounds i8, ptr %201, i64 %203
  %205 = load i32, ptr %14, align 4
  %206 = zext i32 %205 to i64
  call void @llvm.memset.p0.i64(ptr align 1 %204, i8 0, i64 %206, i1 false)
  br label %207

207:                                              ; preds = %181, %138
  %208 = load i64, ptr %10, align 8
  %209 = load ptr, ptr %8, align 8
  store i64 %208, ptr %209, align 8
  br label %210

210:                                              ; preds = %207, %178, %157, %135, %112, %89, %66, %41
  %211 = load i32, ptr %11, align 4
  ret i32 %211
}