; Function Attrs: nounwind uwtable
define range(i32 -1, 1) i32 @H5F__get_file_image(ptr noundef readonly %0, ptr noundef %1, i64 noundef %2, ptr nocapture noundef writeonly %3) local_unnamed_addr #0 {
  %.not = icmp eq ptr %0, null
  br i1 %.not, label %10, label %5

5:                                                ; preds = %4
  %6 = getelementptr inbounds i8, ptr %0, i64 16
  %7 = load ptr, ptr %6, align 8
  %.not34 = icmp eq ptr %7, null
  br i1 %.not34, label %10, label %8

8:                                                ; preds = %5
  %9 = load ptr, ptr %7, align 8
  %.not35 = icmp eq ptr %9, null
  br i1 %.not35, label %10, label %14

10:                                               ; preds = %4, %5, %8
  %11 = load i64, ptr @H5E_FILE_g, align 8
  %12 = load i64, ptr @H5E_BADVALUE_g, align 8
  %13 = tail call i32 (ptr, ptr, i32, i64, i64, ptr, ...) @H5E_printf_stack(ptr noundef nonnull @.str.2, ptr noundef nonnull @__func__.H5F__get_file_image, i32 noundef 3232, i64 noundef %11, i64 noundef %12, ptr noundef nonnull @.str.134) #22
  br label %69

14:                                               ; preds = %8
  %15 = getelementptr inbounds i8, ptr %9, i64 8
  %16 = load ptr, ptr %15, align 8
  %.not36 = icmp eq ptr %16, null
  br i1 %.not36, label %17, label %21

17:                                               ; preds = %14
  %18 = load i64, ptr @H5E_FILE_g, align 8
  %19 = load i64, ptr @H5E_BADVALUE_g, align 8
  %20 = tail call i32 (ptr, ptr, i32, i64, i64, ptr, ...) @H5E_printf_stack(ptr noundef nonnull @.str.2, ptr noundef nonnull @__func__.H5F__get_file_image, i32 noundef 3235, i64 noundef %18, i64 noundef %19, ptr noundef nonnull @.str.135) #22
  br label %69

21:                                               ; preds = %14
  %22 = getelementptr inbounds i8, ptr %16, i64 8
  %23 = load ptr, ptr %22, align 8
  %24 = tail call i32 @strcmp(ptr noundef nonnull dereferenceable(1) %23, ptr noundef nonnull dereferenceable(6) @.str.136) #23
  %25 = icmp eq i32 %24, 0
  br i1 %25, label %26, label %30

26:                                               ; preds = %21
  %27 = load i64, ptr @H5E_ARGS_g, align 8
  %28 = load i64, ptr @H5E_BADVALUE_g, align 8
  %29 = tail call i32 (ptr, ptr, i32, i64, i64, ptr, ...) @H5E_printf_stack(ptr noundef nonnull @.str.2, ptr noundef nonnull @__func__.H5F__get_file_image, i32 noundef 3256, i64 noundef %27, i64 noundef %28, ptr noundef nonnull @.str.137) #22
  br label %69

30:                                               ; preds = %21
  %31 = tail call i32 @strcmp(ptr noundef nonnull dereferenceable(1) %23, ptr noundef nonnull dereferenceable(7) @.str.138) #23
  %32 = icmp eq i32 %31, 0
  br i1 %32, label %33, label %37

33:                                               ; preds = %30
  %34 = load i64, ptr @H5E_FILE_g, align 8
  %35 = load i64, ptr @H5E_BADVALUE_g, align 8
  %36 = tail call i32 (ptr, ptr, i32, i64, i64, ptr, ...) @H5E_printf_stack(ptr noundef nonnull @.str.2, ptr noundef nonnull @__func__.H5F__get_file_image, i32 noundef 3278, i64 noundef %34, i64 noundef %35, ptr noundef nonnull @.str.139) #22
  br label %69

37:                                               ; preds = %30
  %38 = tail call i64 @H5FD_get_eoa(ptr noundef nonnull %9, i32 noundef 0) #22
  %39 = icmp eq i64 %38, -1
  br i1 %39, label %40, label %44

40:                                               ; preds = %37
  %41 = load i64, ptr @H5E_FILE_g, align 8
  %42 = load i64, ptr @H5E_CANTGET_g, align 8
  %43 = tail call i32 (ptr, ptr, i32, i64, i64, ptr, ...) @H5E_printf_stack(ptr noundef nonnull @.str.2, ptr noundef nonnull @__func__.H5F__get_file_image, i32 noundef 3282, i64 noundef %41, i64 noundef %42, ptr noundef nonnull @.str.140) #22
  br label %69

44:                                               ; preds = %37
  %.not37 = icmp eq ptr %1, null
  br i1 %.not37, label %68, label %45

45:                                               ; preds = %44
  %46 = icmp ugt i64 %38, %2
  br i1 %46, label %47, label %51

47:                                               ; preds = %45
  %48 = load i64, ptr @H5E_FILE_g, align 8
  %49 = load i64, ptr @H5E_BADVALUE_g, align 8
  %50 = tail call i32 (ptr, ptr, i32, i64, i64, ptr, ...) @H5E_printf_stack(ptr noundef nonnull @.str.2, ptr noundef nonnull @__func__.H5F__get_file_image, i32 noundef 3290, i64 noundef %48, i64 noundef %49, ptr noundef nonnull @.str.141) #22
  br label %69

51:                                               ; preds = %45
  %52 = tail call i32 @H5FD_read(ptr noundef nonnull %9, i32 noundef 0, i64 noundef 0, i64 noundef %38, ptr noundef nonnull %1) #22
  %53 = icmp slt i32 %52, 0
  br i1 %53, label %54, label %58

54:                                               ; preds = %51
  %55 = load i64, ptr @H5E_FILE_g, align 8
  %56 = load i64, ptr @H5E_READERROR_g, align 8
  %57 = tail call i32 (ptr, ptr, i32, i64, i64, ptr, ...) @H5E_printf_stack(ptr noundef nonnull @.str.2, ptr noundef nonnull @__func__.H5F__get_file_image, i32 noundef 3295, i64 noundef %55, i64 noundef %56, ptr noundef nonnull @.str.142) #22
  br label %69

58:                                               ; preds = %51
  %59 = load ptr, ptr %6, align 8
  %60 = getelementptr inbounds i8, ptr %59, i64 8
  %61 = load ptr, ptr %60, align 8
  %62 = getelementptr inbounds i8, ptr %61, i64 248
  %63 = load i32, ptr %62, align 8
  %64 = icmp ugt i32 %63, 1
  %65 = select i1 %64, i64 11, i64 20
  %66 = select i1 %64, i64 1, i64 4
  %67 = getelementptr inbounds i8, ptr %1, i64 %65
  tail call void @llvm.memset.p0.i64(ptr noundef nonnull align 1 dereferenceable(1) %67, i8 0, i64 %66, i1 false)
  br label %68

68:                                               ; preds = %58, %44
  store i64 %38, ptr %3, align 8
  br label %69

69:                                               ; preds = %68, %54, %47, %40, %33, %26, %17, %10
  %.0 = phi i32 [ -1, %26 ], [ -1, %33 ], [ -1, %40 ], [ -1, %47 ], [ -1, %54 ], [ 0, %68 ], [ -1, %17 ], [ -1, %10 ]
  ret i32 %.0
}